ARM GAS  C:\Users\jrdia\AppData\Local\Temp\ccosc5FV.s 			page 1


   1              		.syntax unified
   2              		.cpu cortex-m3
   3              		.fpu softvfp
   4              		.eabi_attribute 20, 1
   5              		.eabi_attribute 21, 1
   6              		.eabi_attribute 23, 3
   7              		.eabi_attribute 24, 1
   8              		.eabi_attribute 25, 1
   9              		.eabi_attribute 26, 1
  10              		.eabi_attribute 30, 1
  11              		.eabi_attribute 34, 1
  12              		.eabi_attribute 18, 4
  13              		.thumb
  14              		.syntax unified
  15              		.file	"LCD.c"
  16              		.text
  17              	.Ltext0:
  18              		.cfi_sections	.debug_frame
  19              		.section	.text.writeBusLCD,"ax",%progbits
  20              		.align	2
  21              		.global	writeBusLCD
  22              		.thumb
  23              		.thumb_func
  24              		.type	writeBusLCD, %function
  25              	writeBusLCD:
  26              	.LFB63:
  27              		.file 1 "LCD.c"
   1:LCD.c         **** /* ========================================
   2:LCD.c         ****  *
   3:LCD.c         ****  * Copyright YOUR COMPANY, THE YEAR
   4:LCD.c         ****  * All Rights Reserved
   5:LCD.c         ****  * UNPUBLISHED, LICENSED SOFTWARE.
   6:LCD.c         ****  *
   7:LCD.c         ****  * CONFIDENTIAL AND PROPRIETARY INFORMATION
   8:LCD.c         ****  * WHICH IS THE PROPERTY OF your company.
   9:LCD.c         ****  *
  10:LCD.c         ****  * ========================================
  11:LCD.c         **** */
  12:LCD.c         **** 
  13:LCD.c         **** /* [] END OF FILE */
  14:LCD.c         **** 
  15:LCD.c         **** #include "LCD.h"
  16:LCD.c         **** #include "project.h"
  17:LCD.c         **** 
  18:LCD.c         **** void writeBusLCD(uint8 value)
  19:LCD.c         **** {
  28              		.loc 1 19 0
  29              		.cfi_startproc
  30              		@ args = 0, pretend = 0, frame = 0
  31              		@ frame_needed = 0, uses_anonymous_args = 0
  32              	.LVL0:
  33 0000 08B5     		push	{r3, lr}
  34              		.cfi_def_cfa_offset 8
  35              		.cfi_offset 3, -8
  36              		.cfi_offset 14, -4
  20:LCD.c         ****     LCD_Data_Reg_Write(value);
  37              		.loc 1 20 0
ARM GAS  C:\Users\jrdia\AppData\Local\Temp\ccosc5FV.s 			page 2


  38 0002 FFF7FEFF 		bl	LCD_Data_Reg_Write
  39              	.LVL1:
  21:LCD.c         ****     LCD_WR_REG_Write(5);
  40              		.loc 1 21 0
  41 0006 0520     		movs	r0, #5
  42 0008 FFF7FEFF 		bl	LCD_WR_REG_Write
  43              	.LVL2:
  22:LCD.c         ****     LCD_WR_REG_Write(7);
  44              		.loc 1 22 0
  45 000c 0720     		movs	r0, #7
  46 000e FFF7FEFF 		bl	LCD_WR_REG_Write
  47              	.LVL3:
  48 0012 08BD     		pop	{r3, pc}
  49              		.cfi_endproc
  50              	.LFE63:
  51              		.size	writeBusLCD, .-writeBusLCD
  52              		.section	.text.writeComLCD,"ax",%progbits
  53              		.align	2
  54              		.global	writeComLCD
  55              		.thumb
  56              		.thumb_func
  57              		.type	writeComLCD, %function
  58              	writeComLCD:
  59              	.LFB64:
  23:LCD.c         **** }
  24:LCD.c         **** 
  25:LCD.c         **** void writeComLCD(uint8 value)
  26:LCD.c         **** {
  60              		.loc 1 26 0
  61              		.cfi_startproc
  62              		@ args = 0, pretend = 0, frame = 0
  63              		@ frame_needed = 0, uses_anonymous_args = 0
  64              	.LVL4:
  65 0000 10B5     		push	{r4, lr}
  66              		.cfi_def_cfa_offset 8
  67              		.cfi_offset 4, -8
  68              		.cfi_offset 14, -4
  69 0002 0446     		mov	r4, r0
  27:LCD.c         ****     LCD_RS_Write(0);
  70              		.loc 1 27 0
  71 0004 0020     		movs	r0, #0
  72              	.LVL5:
  73 0006 FFF7FEFF 		bl	LCD_RS_Write
  74              	.LVL6:
  28:LCD.c         ****     writeBusLCD(value);
  75              		.loc 1 28 0
  76 000a 2046     		mov	r0, r4
  77 000c FFF7FEFF 		bl	writeBusLCD
  78              	.LVL7:
  79 0010 10BD     		pop	{r4, pc}
  80              		.cfi_endproc
  81              	.LFE64:
  82              		.size	writeComLCD, .-writeComLCD
  83 0012 00BF     		.section	.text.writeDataLCD,"ax",%progbits
  84              		.align	2
  85              		.global	writeDataLCD
  86              		.thumb
ARM GAS  C:\Users\jrdia\AppData\Local\Temp\ccosc5FV.s 			page 3


  87              		.thumb_func
  88              		.type	writeDataLCD, %function
  89              	writeDataLCD:
  90              	.LFB65:
  29:LCD.c         ****     
  30:LCD.c         **** }
  31:LCD.c         **** void writeDataLCD(uint8 value)
  32:LCD.c         **** {
  91              		.loc 1 32 0
  92              		.cfi_startproc
  93              		@ args = 0, pretend = 0, frame = 0
  94              		@ frame_needed = 0, uses_anonymous_args = 0
  95              	.LVL8:
  96 0000 10B5     		push	{r4, lr}
  97              		.cfi_def_cfa_offset 8
  98              		.cfi_offset 4, -8
  99              		.cfi_offset 14, -4
 100 0002 0446     		mov	r4, r0
  33:LCD.c         ****     LCD_RS_Write(1);
 101              		.loc 1 33 0
 102 0004 0120     		movs	r0, #1
 103              	.LVL9:
 104 0006 FFF7FEFF 		bl	LCD_RS_Write
 105              	.LVL10:
  34:LCD.c         ****     writeBusLCD(value);
 106              		.loc 1 34 0
 107 000a 2046     		mov	r0, r4
 108 000c FFF7FEFF 		bl	writeBusLCD
 109              	.LVL11:
 110 0010 10BD     		pop	{r4, pc}
 111              		.cfi_endproc
 112              	.LFE65:
 113              		.size	writeDataLCD, .-writeDataLCD
 114 0012 00BF     		.section	.text.Address_set,"ax",%progbits
 115              		.align	2
 116              		.global	Address_set
 117              		.thumb
 118              		.thumb_func
 119              		.type	Address_set, %function
 120              	Address_set:
 121              	.LFB66:
  35:LCD.c         ****     
  36:LCD.c         **** }
  37:LCD.c         **** 
  38:LCD.c         **** void Address_set(uint16 y1,uint16 x1,uint16 y2,uint16 x2)
  39:LCD.c         **** {
 122              		.loc 1 39 0
 123              		.cfi_startproc
 124              		@ args = 0, pretend = 0, frame = 0
 125              		@ frame_needed = 0, uses_anonymous_args = 0
 126              	.LVL12:
 127 0000 F8B5     		push	{r3, r4, r5, r6, r7, lr}
 128              		.cfi_def_cfa_offset 24
 129              		.cfi_offset 3, -24
 130              		.cfi_offset 4, -20
 131              		.cfi_offset 5, -16
 132              		.cfi_offset 6, -12
ARM GAS  C:\Users\jrdia\AppData\Local\Temp\ccosc5FV.s 			page 4


 133              		.cfi_offset 7, -8
 134              		.cfi_offset 14, -4
 135 0002 0546     		mov	r5, r0
 136 0004 0F46     		mov	r7, r1
 137 0006 1446     		mov	r4, r2
 138 0008 1E46     		mov	r6, r3
  40:LCD.c         ****     writeComLCD(0x2a);
 139              		.loc 1 40 0
 140 000a 2A20     		movs	r0, #42
 141              	.LVL13:
 142 000c FFF7FEFF 		bl	writeComLCD
 143              	.LVL14:
  41:LCD.c         ****     writeDataLCD((x1>>8)&0xFF);
 144              		.loc 1 41 0
 145 0010 380A     		lsrs	r0, r7, #8
 146 0012 FFF7FEFF 		bl	writeDataLCD
 147              	.LVL15:
  42:LCD.c         ****     writeDataLCD(x1&0xFF);
 148              		.loc 1 42 0
 149 0016 F8B2     		uxtb	r0, r7
 150 0018 FFF7FEFF 		bl	writeDataLCD
 151              	.LVL16:
  43:LCD.c         ****     writeDataLCD((x2>>8)&0xFF);
 152              		.loc 1 43 0
 153 001c 300A     		lsrs	r0, r6, #8
 154 001e FFF7FEFF 		bl	writeDataLCD
 155              	.LVL17:
  44:LCD.c         ****     writeDataLCD(x2&0xFF);
 156              		.loc 1 44 0
 157 0022 F0B2     		uxtb	r0, r6
 158 0024 FFF7FEFF 		bl	writeDataLCD
 159              	.LVL18:
  45:LCD.c         ****     writeComLCD(0x2b);
 160              		.loc 1 45 0
 161 0028 2B20     		movs	r0, #43
 162 002a FFF7FEFF 		bl	writeComLCD
 163              	.LVL19:
  46:LCD.c         ****     writeDataLCD((y1>>8)&0xFF);
 164              		.loc 1 46 0
 165 002e 280A     		lsrs	r0, r5, #8
 166 0030 FFF7FEFF 		bl	writeDataLCD
 167              	.LVL20:
  47:LCD.c         ****     writeDataLCD(y1&0xFF);
 168              		.loc 1 47 0
 169 0034 E8B2     		uxtb	r0, r5
 170 0036 FFF7FEFF 		bl	writeDataLCD
 171              	.LVL21:
  48:LCD.c         ****     writeDataLCD((y2>>8)&0xFF);
 172              		.loc 1 48 0
 173 003a 200A     		lsrs	r0, r4, #8
 174 003c FFF7FEFF 		bl	writeDataLCD
 175              	.LVL22:
  49:LCD.c         ****     writeDataLCD(y2&0xFF);
 176              		.loc 1 49 0
 177 0040 E0B2     		uxtb	r0, r4
 178 0042 FFF7FEFF 		bl	writeDataLCD
 179              	.LVL23:
ARM GAS  C:\Users\jrdia\AppData\Local\Temp\ccosc5FV.s 			page 5


  50:LCD.c         ****     writeComLCD(0x2c);     
 180              		.loc 1 50 0
 181 0046 2C20     		movs	r0, #44
 182 0048 FFF7FEFF 		bl	writeComLCD
 183              	.LVL24:
 184 004c F8BD     		pop	{r3, r4, r5, r6, r7, pc}
 185              		.cfi_endproc
 186              	.LFE66:
 187              		.size	Address_set, .-Address_set
 188 004e 00BF     		.section	.text.clearLCD,"ax",%progbits
 189              		.align	2
 190              		.global	clearLCD
 191              		.thumb
 192              		.thumb_func
 193              		.type	clearLCD, %function
 194              	clearLCD:
 195              	.LFB67:
  51:LCD.c         **** }
  52:LCD.c         **** void clearLCD(uint16 value)
  53:LCD.c         **** {
 196              		.loc 1 53 0
 197              		.cfi_startproc
 198              		@ args = 0, pretend = 0, frame = 0
 199              		@ frame_needed = 0, uses_anonymous_args = 0
 200              	.LVL25:
 201 0000 70B5     		push	{r4, r5, r6, lr}
 202              		.cfi_def_cfa_offset 16
 203              		.cfi_offset 4, -16
 204              		.cfi_offset 5, -12
 205              		.cfi_offset 6, -8
 206              		.cfi_offset 14, -4
 207 0002 0546     		mov	r5, r0
  54:LCD.c         ****     
  55:LCD.c         ****  uint16 i,m;
  56:LCD.c         ****     
  57:LCD.c         ****  
  58:LCD.c         ****   //writeComLCD(0x02c); //write_memory_start
  59:LCD.c         ****   //digitalWrite(LCD_RS,HIGH);
  60:LCD.c         ****     LCD_CS_Write(0);
 208              		.loc 1 60 0
 209 0004 0020     		movs	r0, #0
 210              	.LVL26:
 211 0006 FFF7FEFF 		bl	LCD_CS_Write
 212              	.LVL27:
  61:LCD.c         ****     
  62:LCD.c         ****   for(i=0;i<240;i++)
 213              		.loc 1 62 0
 214 000a 0026     		movs	r6, #0
 215 000c 0EE0     		b	.L10
 216              	.LVL28:
 217              	.L11:
  63:LCD.c         ****     for(m=0;m<320;m++)
  64:LCD.c         ****     {
  65:LCD.c         ****       writeDataLCD((value>>8&0xFF));
 218              		.loc 1 65 0 discriminator 3
 219 000e 280A     		lsrs	r0, r5, #8
 220 0010 FFF7FEFF 		bl	writeDataLCD
ARM GAS  C:\Users\jrdia\AppData\Local\Temp\ccosc5FV.s 			page 6


 221              	.LVL29:
  66:LCD.c         ****       writeDataLCD(value&0xFF);
 222              		.loc 1 66 0 discriminator 3
 223 0014 E8B2     		uxtb	r0, r5
 224 0016 FFF7FEFF 		bl	writeDataLCD
 225              	.LVL30:
  63:LCD.c         ****     for(m=0;m<320;m++)
 226              		.loc 1 63 0 discriminator 3
 227 001a 0134     		adds	r4, r4, #1
 228              	.LVL31:
 229 001c A4B2     		uxth	r4, r4
 230              	.LVL32:
 231 001e 00E0     		b	.L12
 232              	.LVL33:
 233              	.L13:
 234 0020 0024     		movs	r4, #0
 235              	.L12:
 236              	.LVL34:
  63:LCD.c         ****     for(m=0;m<320;m++)
 237              		.loc 1 63 0 is_stmt 0 discriminator 1
 238 0022 B4F5A07F 		cmp	r4, #320
 239 0026 F2D3     		bcc	.L11
  62:LCD.c         ****     for(m=0;m<320;m++)
 240              		.loc 1 62 0 is_stmt 1 discriminator 2
 241 0028 0136     		adds	r6, r6, #1
 242              	.LVL35:
 243 002a B6B2     		uxth	r6, r6
 244              	.LVL36:
 245              	.L10:
  62:LCD.c         ****     for(m=0;m<320;m++)
 246              		.loc 1 62 0 is_stmt 0 discriminator 1
 247 002c EF2E     		cmp	r6, #239
 248 002e F7D9     		bls	.L13
  67:LCD.c         **** 
  68:LCD.c         ****     }
  69:LCD.c         ****     LCD_CS_Write(1);
 249              		.loc 1 69 0 is_stmt 1
 250 0030 0120     		movs	r0, #1
 251 0032 FFF7FEFF 		bl	LCD_CS_Write
 252              	.LVL37:
 253 0036 70BD     		pop	{r4, r5, r6, pc}
 254              		.cfi_endproc
 255              	.LFE67:
 256              		.size	clearLCD, .-clearLCD
 257              		.section	.text.initLCD,"ax",%progbits
 258              		.align	2
 259              		.global	initLCD
 260              		.thumb
 261              		.thumb_func
 262              		.type	initLCD, %function
 263              	initLCD:
 264              	.LFB68:
  70:LCD.c         ****   //digitalWrite(LCD_CS,HIGH);  
  71:LCD.c         ****     
  72:LCD.c         **** }
  73:LCD.c         **** void initLCD(void)
  74:LCD.c         **** {
ARM GAS  C:\Users\jrdia\AppData\Local\Temp\ccosc5FV.s 			page 7


 265              		.loc 1 74 0
 266              		.cfi_startproc
 267              		@ args = 0, pretend = 0, frame = 0
 268              		@ frame_needed = 0, uses_anonymous_args = 0
 269 0000 08B5     		push	{r3, lr}
 270              		.cfi_def_cfa_offset 8
 271              		.cfi_offset 3, -8
 272              		.cfi_offset 14, -4
  75:LCD.c         ****     LCD_RST_Write(1);
 273              		.loc 1 75 0
 274 0002 0120     		movs	r0, #1
 275 0004 FFF7FEFF 		bl	LCD_RST_Write
 276              	.LVL38:
  76:LCD.c         ****     LCD_CS_Write(1);
 277              		.loc 1 76 0
 278 0008 0120     		movs	r0, #1
 279 000a FFF7FEFF 		bl	LCD_CS_Write
 280              	.LVL39:
  77:LCD.c         ****     LCD_RS_Write(1);
 281              		.loc 1 77 0
 282 000e 0120     		movs	r0, #1
 283 0010 FFF7FEFF 		bl	LCD_RS_Write
 284              	.LVL40:
  78:LCD.c         ****     LCD_WR_REG_Write(7);
 285              		.loc 1 78 0
 286 0014 0720     		movs	r0, #7
 287 0016 FFF7FEFF 		bl	LCD_WR_REG_Write
 288              	.LVL41:
  79:LCD.c         ****     LCD_RD_Write(1);
 289              		.loc 1 79 0
 290 001a 0120     		movs	r0, #1
 291 001c FFF7FEFF 		bl	LCD_RD_Write
 292              	.LVL42:
  80:LCD.c         ****     CyDelay(100);
 293              		.loc 1 80 0
 294 0020 6420     		movs	r0, #100
 295 0022 FFF7FEFF 		bl	CyDelay
 296              	.LVL43:
  81:LCD.c         ****     
  82:LCD.c         ****     LCD_RST_Write(1);
 297              		.loc 1 82 0
 298 0026 0120     		movs	r0, #1
 299 0028 FFF7FEFF 		bl	LCD_RST_Write
 300              	.LVL44:
  83:LCD.c         ****     CyDelay(5);
 301              		.loc 1 83 0
 302 002c 0520     		movs	r0, #5
 303 002e FFF7FEFF 		bl	CyDelay
 304              	.LVL45:
  84:LCD.c         ****     LCD_RST_Write(0);
 305              		.loc 1 84 0
 306 0032 0020     		movs	r0, #0
 307 0034 FFF7FEFF 		bl	LCD_RST_Write
 308              	.LVL46:
  85:LCD.c         ****     CyDelay(15);
 309              		.loc 1 85 0
 310 0038 0F20     		movs	r0, #15
ARM GAS  C:\Users\jrdia\AppData\Local\Temp\ccosc5FV.s 			page 8


 311 003a FFF7FEFF 		bl	CyDelay
 312              	.LVL47:
  86:LCD.c         ****     LCD_RST_Write(1);
 313              		.loc 1 86 0
 314 003e 0120     		movs	r0, #1
 315 0040 FFF7FEFF 		bl	LCD_RST_Write
 316              	.LVL48:
  87:LCD.c         ****     CyDelay(15);
 317              		.loc 1 87 0
 318 0044 0F20     		movs	r0, #15
 319 0046 FFF7FEFF 		bl	CyDelay
 320              	.LVL49:
  88:LCD.c         ****     LCD_CS_Write(1);
 321              		.loc 1 88 0
 322 004a 0120     		movs	r0, #1
 323 004c FFF7FEFF 		bl	LCD_CS_Write
 324              	.LVL50:
  89:LCD.c         ****     LCD_WR_REG_Write(7);
 325              		.loc 1 89 0
 326 0050 0720     		movs	r0, #7
 327 0052 FFF7FEFF 		bl	LCD_WR_REG_Write
 328              	.LVL51:
  90:LCD.c         ****     LCD_CS_Write(0);
 329              		.loc 1 90 0
 330 0056 0020     		movs	r0, #0
 331 0058 FFF7FEFF 		bl	LCD_CS_Write
 332              	.LVL52:
  91:LCD.c         ****     
  92:LCD.c         ****     writeComLCD(0xCB);  
 333              		.loc 1 92 0
 334 005c CB20     		movs	r0, #203
 335 005e FFF7FEFF 		bl	writeComLCD
 336              	.LVL53:
  93:LCD.c         ****     writeDataLCD(0x39); 
 337              		.loc 1 93 0
 338 0062 3920     		movs	r0, #57
 339 0064 FFF7FEFF 		bl	writeDataLCD
 340              	.LVL54:
  94:LCD.c         ****     writeDataLCD(0x2C); 
 341              		.loc 1 94 0
 342 0068 2C20     		movs	r0, #44
 343 006a FFF7FEFF 		bl	writeDataLCD
 344              	.LVL55:
  95:LCD.c         ****     writeDataLCD(0x00); 
 345              		.loc 1 95 0
 346 006e 0020     		movs	r0, #0
 347 0070 FFF7FEFF 		bl	writeDataLCD
 348              	.LVL56:
  96:LCD.c         ****     writeDataLCD(0x34); 
 349              		.loc 1 96 0
 350 0074 3420     		movs	r0, #52
 351 0076 FFF7FEFF 		bl	writeDataLCD
 352              	.LVL57:
  97:LCD.c         ****     writeDataLCD(0x02); 
 353              		.loc 1 97 0
 354 007a 0220     		movs	r0, #2
 355 007c FFF7FEFF 		bl	writeDataLCD
ARM GAS  C:\Users\jrdia\AppData\Local\Temp\ccosc5FV.s 			page 9


 356              	.LVL58:
  98:LCD.c         **** 
  99:LCD.c         ****     writeComLCD(0xCF);  
 357              		.loc 1 99 0
 358 0080 CF20     		movs	r0, #207
 359 0082 FFF7FEFF 		bl	writeComLCD
 360              	.LVL59:
 100:LCD.c         ****     writeDataLCD(0x00); 
 361              		.loc 1 100 0
 362 0086 0020     		movs	r0, #0
 363 0088 FFF7FEFF 		bl	writeDataLCD
 364              	.LVL60:
 101:LCD.c         ****     writeDataLCD(0XC1); 
 365              		.loc 1 101 0
 366 008c C120     		movs	r0, #193
 367 008e FFF7FEFF 		bl	writeDataLCD
 368              	.LVL61:
 102:LCD.c         ****     writeDataLCD(0X30); 
 369              		.loc 1 102 0
 370 0092 3020     		movs	r0, #48
 371 0094 FFF7FEFF 		bl	writeDataLCD
 372              	.LVL62:
 103:LCD.c         **** 
 104:LCD.c         ****     writeComLCD(0xE8);  
 373              		.loc 1 104 0
 374 0098 E820     		movs	r0, #232
 375 009a FFF7FEFF 		bl	writeComLCD
 376              	.LVL63:
 105:LCD.c         ****     writeDataLCD(0x85); 
 377              		.loc 1 105 0
 378 009e 8520     		movs	r0, #133
 379 00a0 FFF7FEFF 		bl	writeDataLCD
 380              	.LVL64:
 106:LCD.c         ****     writeDataLCD(0x00); 
 381              		.loc 1 106 0
 382 00a4 0020     		movs	r0, #0
 383 00a6 FFF7FEFF 		bl	writeDataLCD
 384              	.LVL65:
 107:LCD.c         ****     writeDataLCD(0x78); 
 385              		.loc 1 107 0
 386 00aa 7820     		movs	r0, #120
 387 00ac FFF7FEFF 		bl	writeDataLCD
 388              	.LVL66:
 108:LCD.c         **** 
 109:LCD.c         ****     writeComLCD(0xEA);  
 389              		.loc 1 109 0
 390 00b0 EA20     		movs	r0, #234
 391 00b2 FFF7FEFF 		bl	writeComLCD
 392              	.LVL67:
 110:LCD.c         ****     writeDataLCD(0x00); 
 393              		.loc 1 110 0
 394 00b6 0020     		movs	r0, #0
 395 00b8 FFF7FEFF 		bl	writeDataLCD
 396              	.LVL68:
 111:LCD.c         ****     writeDataLCD(0x00); 
 397              		.loc 1 111 0
 398 00bc 0020     		movs	r0, #0
ARM GAS  C:\Users\jrdia\AppData\Local\Temp\ccosc5FV.s 			page 10


 399 00be FFF7FEFF 		bl	writeDataLCD
 400              	.LVL69:
 112:LCD.c         ****  
 113:LCD.c         ****     writeComLCD(0xED);  
 401              		.loc 1 113 0
 402 00c2 ED20     		movs	r0, #237
 403 00c4 FFF7FEFF 		bl	writeComLCD
 404              	.LVL70:
 114:LCD.c         ****     writeDataLCD(0x64); 
 405              		.loc 1 114 0
 406 00c8 6420     		movs	r0, #100
 407 00ca FFF7FEFF 		bl	writeDataLCD
 408              	.LVL71:
 115:LCD.c         ****     writeDataLCD(0x03); 
 409              		.loc 1 115 0
 410 00ce 0320     		movs	r0, #3
 411 00d0 FFF7FEFF 		bl	writeDataLCD
 412              	.LVL72:
 116:LCD.c         ****     writeDataLCD(0X12); 
 413              		.loc 1 116 0
 414 00d4 1220     		movs	r0, #18
 415 00d6 FFF7FEFF 		bl	writeDataLCD
 416              	.LVL73:
 117:LCD.c         ****     writeDataLCD(0X81); 
 417              		.loc 1 117 0
 418 00da 8120     		movs	r0, #129
 419 00dc FFF7FEFF 		bl	writeDataLCD
 420              	.LVL74:
 118:LCD.c         **** 
 119:LCD.c         ****     writeComLCD(0xF7);  
 421              		.loc 1 119 0
 422 00e0 F720     		movs	r0, #247
 423 00e2 FFF7FEFF 		bl	writeComLCD
 424              	.LVL75:
 120:LCD.c         ****     writeDataLCD(0x20); 
 425              		.loc 1 120 0
 426 00e6 2020     		movs	r0, #32
 427 00e8 FFF7FEFF 		bl	writeDataLCD
 428              	.LVL76:
 121:LCD.c         ****   
 122:LCD.c         ****     writeComLCD(0xC0);    //Power control 
 429              		.loc 1 122 0
 430 00ec C020     		movs	r0, #192
 431 00ee FFF7FEFF 		bl	writeComLCD
 432              	.LVL77:
 123:LCD.c         ****     writeDataLCD(0x23);   //VRH[5:0] 
 433              		.loc 1 123 0
 434 00f2 2320     		movs	r0, #35
 435 00f4 FFF7FEFF 		bl	writeDataLCD
 436              	.LVL78:
 124:LCD.c         ****  
 125:LCD.c         ****     writeComLCD(0xC1);    //Power control 
 437              		.loc 1 125 0
 438 00f8 C120     		movs	r0, #193
 439 00fa FFF7FEFF 		bl	writeComLCD
 440              	.LVL79:
 126:LCD.c         ****     writeDataLCD(0x10);   //SAP[2:0];BT[3:0] 
ARM GAS  C:\Users\jrdia\AppData\Local\Temp\ccosc5FV.s 			page 11


 441              		.loc 1 126 0
 442 00fe 1020     		movs	r0, #16
 443 0100 FFF7FEFF 		bl	writeDataLCD
 444              	.LVL80:
 127:LCD.c         **** 
 128:LCD.c         ****     writeComLCD(0xC5);    //VCM control 
 445              		.loc 1 128 0
 446 0104 C520     		movs	r0, #197
 447 0106 FFF7FEFF 		bl	writeComLCD
 448              	.LVL81:
 129:LCD.c         ****     writeDataLCD(0x3e);   //Contrast
 449              		.loc 1 129 0
 450 010a 3E20     		movs	r0, #62
 451 010c FFF7FEFF 		bl	writeDataLCD
 452              	.LVL82:
 130:LCD.c         ****     writeDataLCD(0x28); 
 453              		.loc 1 130 0
 454 0110 2820     		movs	r0, #40
 455 0112 FFF7FEFF 		bl	writeDataLCD
 456              	.LVL83:
 131:LCD.c         ****  
 132:LCD.c         ****     writeComLCD(0xC7);    //VCM control2 
 457              		.loc 1 132 0
 458 0116 C720     		movs	r0, #199
 459 0118 FFF7FEFF 		bl	writeComLCD
 460              	.LVL84:
 133:LCD.c         ****     writeDataLCD(0x86);   //--
 461              		.loc 1 133 0
 462 011c 8620     		movs	r0, #134
 463 011e FFF7FEFF 		bl	writeDataLCD
 464              	.LVL85:
 134:LCD.c         ****  
 135:LCD.c         ****     writeComLCD(0x36);    // Memory Access Control 
 465              		.loc 1 135 0
 466 0122 3620     		movs	r0, #54
 467 0124 FFF7FEFF 		bl	writeComLCD
 468              	.LVL86:
 136:LCD.c         ****     //writeDataLCD(0x48);  
 137:LCD.c         ****     writeDataLCD(0xE8);  
 469              		.loc 1 137 0
 470 0128 E820     		movs	r0, #232
 471 012a FFF7FEFF 		bl	writeDataLCD
 472              	.LVL87:
 138:LCD.c         **** 
 139:LCD.c         ****     writeComLCD(0x3A);    
 473              		.loc 1 139 0
 474 012e 3A20     		movs	r0, #58
 475 0130 FFF7FEFF 		bl	writeComLCD
 476              	.LVL88:
 140:LCD.c         ****     writeDataLCD(0x55); 
 477              		.loc 1 140 0
 478 0134 5520     		movs	r0, #85
 479 0136 FFF7FEFF 		bl	writeDataLCD
 480              	.LVL89:
 141:LCD.c         **** 
 142:LCD.c         ****     writeComLCD(0xB1);    
 481              		.loc 1 142 0
ARM GAS  C:\Users\jrdia\AppData\Local\Temp\ccosc5FV.s 			page 12


 482 013a B120     		movs	r0, #177
 483 013c FFF7FEFF 		bl	writeComLCD
 484              	.LVL90:
 143:LCD.c         ****     writeDataLCD(0x00);  
 485              		.loc 1 143 0
 486 0140 0020     		movs	r0, #0
 487 0142 FFF7FEFF 		bl	writeDataLCD
 488              	.LVL91:
 144:LCD.c         ****     writeDataLCD(0x18); 
 489              		.loc 1 144 0
 490 0146 1820     		movs	r0, #24
 491 0148 FFF7FEFF 		bl	writeDataLCD
 492              	.LVL92:
 145:LCD.c         ****  
 146:LCD.c         ****     writeComLCD(0xB6);    // Display Function Control 
 493              		.loc 1 146 0
 494 014c B620     		movs	r0, #182
 495 014e FFF7FEFF 		bl	writeComLCD
 496              	.LVL93:
 147:LCD.c         ****     writeDataLCD(0x08); 
 497              		.loc 1 147 0
 498 0152 0820     		movs	r0, #8
 499 0154 FFF7FEFF 		bl	writeDataLCD
 500              	.LVL94:
 148:LCD.c         ****     writeDataLCD(0x82);
 501              		.loc 1 148 0
 502 0158 8220     		movs	r0, #130
 503 015a FFF7FEFF 		bl	writeDataLCD
 504              	.LVL95:
 149:LCD.c         ****     writeDataLCD(0x27);  
 505              		.loc 1 149 0
 506 015e 2720     		movs	r0, #39
 507 0160 FFF7FEFF 		bl	writeDataLCD
 508              	.LVL96:
 150:LCD.c         **** 
 151:LCD.c         ****     writeComLCD(0x11);    //Exit Sleep 
 509              		.loc 1 151 0
 510 0164 1120     		movs	r0, #17
 511 0166 FFF7FEFF 		bl	writeComLCD
 512              	.LVL97:
 152:LCD.c         ****     CyDelay(120); 
 513              		.loc 1 152 0
 514 016a 7820     		movs	r0, #120
 515 016c FFF7FEFF 		bl	CyDelay
 516              	.LVL98:
 153:LCD.c         **** 				
 154:LCD.c         ****     writeComLCD(0x29);    //Display on 
 517              		.loc 1 154 0
 518 0170 2920     		movs	r0, #41
 519 0172 FFF7FEFF 		bl	writeComLCD
 520              	.LVL99:
 155:LCD.c         ****     writeComLCD(0x2c);    
 521              		.loc 1 155 0
 522 0176 2C20     		movs	r0, #44
 523 0178 FFF7FEFF 		bl	writeComLCD
 524              	.LVL100:
 156:LCD.c         ****     
ARM GAS  C:\Users\jrdia\AppData\Local\Temp\ccosc5FV.s 			page 13


 157:LCD.c         ****     Address_set(0,0,240,320);
 525              		.loc 1 157 0
 526 017c 4FF4A073 		mov	r3, #320
 527 0180 F022     		movs	r2, #240
 528 0182 0021     		movs	r1, #0
 529 0184 0846     		mov	r0, r1
 530 0186 FFF7FEFF 		bl	Address_set
 531              	.LVL101:
 532 018a 08BD     		pop	{r3, pc}
 533              		.cfi_endproc
 534              	.LFE68:
 535              		.size	initLCD, .-initLCD
 536              		.text
 537              	.Letext0:
 538              		.file 2 "c:\\program files (x86)\\cypress\\psoc creator\\4.1\\psoc creator\\import\\gnu\\arm\\5.4.
 539              		.file 3 "c:\\program files (x86)\\cypress\\psoc creator\\4.1\\psoc creator\\import\\gnu\\arm\\5.4.
 540              		.file 4 "Generated_Source\\PSoC5/cytypes.h"
 541              		.file 5 "Generated_Source\\PSoC5/LCD_Data_Reg.h"
 542              		.file 6 "Generated_Source\\PSoC5/LCD_WR_REG.h"
 543              		.file 7 "Generated_Source\\PSoC5/LCD_RS.h"
 544              		.file 8 "Generated_Source\\PSoC5/LCD_CS.h"
 545              		.file 9 "Generated_Source\\PSoC5/LCD_RST.h"
 546              		.file 10 "Generated_Source\\PSoC5/LCD_RD.h"
 547              		.file 11 "Generated_Source\\PSoC5/CyLib.h"
 548              		.file 12 "Generated_Source\\PSoC5/core_cm3.h"