ARM GAS  C:\Users\jrdia\AppData\Local\Temp\cc1Uv4Iv.s 			page 1


   1              		.syntax unified
   2              		.cpu cortex-m3
   3              		.fpu softvfp
   4              		.eabi_attribute 20, 1
   5              		.eabi_attribute 21, 1
   6              		.eabi_attribute 23, 3
   7              		.eabi_attribute 24, 1
   8              		.eabi_attribute 25, 1
   9              		.eabi_attribute 26, 1
  10              		.eabi_attribute 30, 1
  11              		.eabi_attribute 34, 1
  12              		.eabi_attribute 18, 4
  13              		.thumb
  14              		.syntax unified
  15              		.file	"main.c"
  16              		.text
  17              	.Ltext0:
  18              		.cfi_sections	.debug_frame
  19              		.section	.text.pixelInt,"ax",%progbits
  20              		.align	2
  21              		.global	pixelInt
  22              		.thumb
  23              		.thumb_func
  24              		.type	pixelInt, %function
  25              	pixelInt:
  26              	.LFB64:
  27              		.file 1 "main.c"
   1:main.c        **** /* ========================================
   2:main.c        ****  *
   3:main.c        ****  * Copyright YOUR COMPANY, THE YEAR
   4:main.c        ****  * All Rights Reserved
   5:main.c        ****  * UNPUBLISHED, LICENSED SOFTWARE.
   6:main.c        ****  *
   7:main.c        ****  * CONFIDENTIAL AND PROPRIETARY INFORMATION
   8:main.c        ****  * WHICH IS THE PROPERTY OF your company.
   9:main.c        ****  *
  10:main.c        ****  * ========================================
  11:main.c        **** */
  12:main.c        **** #include "project.h"
  13:main.c        **** #include "LCD.h"
  14:main.c        **** #include "iprintf.h"
  15:main.c        **** 
  16:main.c        ****     #define W 320
  17:main.c        **** #define H 240
  18:main.c        ****     
  19:main.c        **** uint16 lcdValue = 0xFF;
  20:main.c        **** 
  21:main.c        **** uint8 lcdPixels[9600];
  22:main.c        **** uint8 temp;
  23:main.c        **** 
  24:main.c        **** 
  25:main.c        **** int getPixel(unsigned int x, unsigned int y)
  26:main.c        **** {
  27:main.c        ****     int pixel = (lcdPixels[(y*W/8+x/8)]>>(x%8))&0x01;
  28:main.c        ****     return(pixel);
  29:main.c        **** }
  30:main.c        **** 
ARM GAS  C:\Users\jrdia\AppData\Local\Temp\cc1Uv4Iv.s 			page 2


  31:main.c        **** #define TABLE_LENGTH 10   	 
  32:main.c        **** #define DMA_BYTES_PER_BURST 1
  33:main.c        **** #define DMA_REQUEST_PER_BURST 1
  34:main.c        ****  
  35:main.c        **** const uint8 sineTable[TABLE_LENGTH] = {0,0xFF,0,0xFF,0,0xFF,0,0xff};	
  36:main.c        **** 
  37:main.c        **** uint8 DMA_Chan;               /* The DMA Channel */
  38:main.c        **** uint8 DMA_TD[3];	          /* The DMA Transaction Descriptor (TD) */  	
  39:main.c        **** uint8 ShiftReg_DMA_Chan;
  40:main.c        **** uint8 ShiftReg_DMA_TD[4];  
  41:main.c        **** 
  42:main.c        **** 
  43:main.c        **** void pixelInt(void)
  44:main.c        **** {
  28              		.loc 1 44 0
  29              		.cfi_startproc
  30              		@ args = 0, pretend = 0, frame = 0
  31              		@ frame_needed = 0, uses_anonymous_args = 0
  32 0000 08B5     		push	{r3, lr}
  33              		.cfi_def_cfa_offset 8
  34              		.cfi_offset 3, -8
  35              		.cfi_offset 14, -4
  45:main.c        ****     Pixel_ShiftReg_GetIntStatus();
  36              		.loc 1 45 0
  37 0002 FFF7FEFF 		bl	Pixel_ShiftReg_GetIntStatus
  38              	.LVL0:
  39 0006 08BD     		pop	{r3, pc}
  40              		.cfi_endproc
  41              	.LFE64:
  42              		.size	pixelInt, .-pixelInt
  43              		.section	.text.vsyncISR,"ax",%progbits
  44              		.align	2
  45              		.global	vsyncISR
  46              		.thumb
  47              		.thumb_func
  48              		.type	vsyncISR, %function
  49              	vsyncISR:
  50              	.LFB65:
  46:main.c        ****     
  47:main.c        **** }
  48:main.c        **** 
  49:main.c        **** void vsyncISR(void)
  50:main.c        **** {
  51              		.loc 1 50 0
  52              		.cfi_startproc
  53              		@ args = 0, pretend = 0, frame = 0
  54              		@ frame_needed = 0, uses_anonymous_args = 0
  55 0000 10B5     		push	{r4, lr}
  56              		.cfi_def_cfa_offset 8
  57              		.cfi_offset 4, -8
  58              		.cfi_offset 14, -4
  51:main.c        ****     
  52:main.c        ****       CyDmaChSetRequest(ShiftReg_DMA_Chan, CY_DMA_CPU_TERM_CHAIN);   // Terminate the entire chain 
  59              		.loc 1 52 0
  60 0002 0421     		movs	r1, #4
  61 0004 0A4B     		ldr	r3, .L6
  62 0006 1878     		ldrb	r0, [r3]	@ zero_extendqisi2
ARM GAS  C:\Users\jrdia\AppData\Local\Temp\cc1Uv4Iv.s 			page 3


  63 0008 FFF7FEFF 		bl	CyDmaChSetRequest
  64              	.LVL1:
  65              	.L4:
  53:main.c        ****    
  54:main.c        ****      while(CyDmaChGetRequest(ShiftReg_DMA_Chan));                                               // 
  66              		.loc 1 54 0 discriminator 1
  67 000c 084B     		ldr	r3, .L6
  68 000e 1878     		ldrb	r0, [r3]	@ zero_extendqisi2
  69 0010 FFF7FEFF 		bl	CyDmaChGetRequest
  70              	.LVL2:
  71 0014 0028     		cmp	r0, #0
  72 0016 F9D1     		bne	.L4
  55:main.c        ****    
  56:main.c        ****      CyDmaChEnable(ShiftReg_DMA_Chan, 1); 
  73              		.loc 1 56 0
  74 0018 054C     		ldr	r4, .L6
  75 001a 0121     		movs	r1, #1
  76 001c 2078     		ldrb	r0, [r4]	@ zero_extendqisi2
  77 001e FFF7FEFF 		bl	CyDmaChEnable
  78              	.LVL3:
  57:main.c        ****     CyDmaChSetInitialTd(ShiftReg_DMA_Chan, ShiftReg_DMA_TD[3]);// Re-enable the DMA channel.   
  79              		.loc 1 57 0
  80 0022 044B     		ldr	r3, .L6+4
  81 0024 D978     		ldrb	r1, [r3, #3]	@ zero_extendqisi2
  82 0026 2078     		ldrb	r0, [r4]	@ zero_extendqisi2
  83 0028 FFF7FEFF 		bl	CyDmaChSetInitialTd
  84              	.LVL4:
  85 002c 10BD     		pop	{r4, pc}
  86              	.L7:
  87 002e 00BF     		.align	2
  88              	.L6:
  89 0030 00000000 		.word	ShiftReg_DMA_Chan
  90 0034 00000000 		.word	ShiftReg_DMA_TD
  91              		.cfi_endproc
  92              	.LFE65:
  93              		.size	vsyncISR, .-vsyncISR
  94              		.section	.text.getPixel,"ax",%progbits
  95              		.align	2
  96              		.global	getPixel
  97              		.thumb
  98              		.thumb_func
  99              		.type	getPixel, %function
 100              	getPixel:
 101              	.LFB63:
  26:main.c        ****     int pixel = (lcdPixels[(y*W/8+x/8)]>>(x%8))&0x01;
 102              		.loc 1 26 0
 103              		.cfi_startproc
 104              		@ args = 0, pretend = 0, frame = 0
 105              		@ frame_needed = 0, uses_anonymous_args = 0
 106              		@ link register save eliminated.
 107              	.LVL5:
  27:main.c        ****     return(pixel);
 108              		.loc 1 27 0
 109 0000 01EB8101 		add	r1, r1, r1, lsl #2
 110              	.LVL6:
 111 0004 8A01     		lsls	r2, r1, #6
 112 0006 C308     		lsrs	r3, r0, #3
ARM GAS  C:\Users\jrdia\AppData\Local\Temp\cc1Uv4Iv.s 			page 4


 113 0008 03EBD203 		add	r3, r3, r2, lsr #3
 114 000c 044A     		ldr	r2, .L9
 115 000e D35C     		ldrb	r3, [r2, r3]	@ zero_extendqisi2
 116 0010 00F00700 		and	r0, r0, #7
 117              	.LVL7:
 118 0014 43FA00F0 		asr	r0, r3, r0
 119              	.LVL8:
  29:main.c        **** 
 120              		.loc 1 29 0
 121 0018 00F00100 		and	r0, r0, #1
 122              	.LVL9:
 123 001c 7047     		bx	lr
 124              	.L10:
 125 001e 00BF     		.align	2
 126              	.L9:
 127 0020 00000000 		.word	lcdPixels
 128              		.cfi_endproc
 129              	.LFE63:
 130              		.size	getPixel, .-getPixel
 131              		.section	.text.main,"ax",%progbits
 132              		.align	2
 133              		.global	main
 134              		.thumb
 135              		.thumb_func
 136              		.type	main, %function
 137              	main:
 138              	.LFB66:
  58:main.c        **** }
  59:main.c        **** 
  60:main.c        **** int midX;
  61:main.c        **** int midY;
  62:main.c        **** 
  63:main.c        **** int main(void)
  64:main.c        **** {
 139              		.loc 1 64 0
 140              		.cfi_startproc
 141              		@ args = 0, pretend = 0, frame = 0
 142              		@ frame_needed = 0, uses_anonymous_args = 0
 143 0000 2DE9F047 		push	{r4, r5, r6, r7, r8, r9, r10, lr}
 144              		.cfi_def_cfa_offset 32
 145              		.cfi_offset 4, -32
 146              		.cfi_offset 5, -28
 147              		.cfi_offset 6, -24
 148              		.cfi_offset 7, -20
 149              		.cfi_offset 8, -16
 150              		.cfi_offset 9, -12
 151              		.cfi_offset 10, -8
 152              		.cfi_offset 14, -4
  65:main.c        ****     CyGlobalIntEnable; /* Enable global interrupts. */
 153              		.loc 1 65 0
 154              		.syntax unified
 155              	@ 65 "main.c" 1
 156 0004 62B6     		CPSIE   i
 157              	@ 0 "" 2
  66:main.c        **** 
  67:main.c        ****     /* Place your initialization/startup code here (e.g. MyInst_Start()) */
  68:main.c        **** 
ARM GAS  C:\Users\jrdia\AppData\Local\Temp\cc1Uv4Iv.s 			page 5


  69:main.c        ****     initLCD();
 158              		.loc 1 69 0
 159              		.thumb
 160              		.syntax unified
 161 0006 FFF7FEFF 		bl	initLCD
 162              	.LVL10:
  70:main.c        ****     
  71:main.c        ****     
  72:main.c        ****     /* Defines for LCD_DMA */
  73:main.c        **** //#define LCD_DMA_BYTES_PER_BURST 1
  74:main.c        **** //#define LCD_DMA_REQUEST_PER_BURST 1
  75:main.c        **** //#define TABLE_LENGTH 9600
  76:main.c        **** //#define LCD_DMA_SRC_BASE (CYDEV_SRAM_BASE)
  77:main.c        **** //#define LCD_DMA_DST_BASE (CYDEV_PERIPH_BASE)
  78:main.c        **** 
  79:main.c        **** /* Variable declarations for LCD_DMA */
  80:main.c        **** /* Move these variable declarations to the top of the function */
  81:main.c        **** //uint8 LCD_DMA_Chan;
  82:main.c        **** //uint8 LCD_DMA_TD[1];
  83:main.c        **** 
  84:main.c        **** /* DMA Configuration for LCD_DMA */
  85:main.c        **** //LCD_DMA_Chan = LCD_SHIFT_DMA_DmaInitialize(LCD_DMA_BYTES_PER_BURST, LCD_DMA_REQUEST_PER_BURST, HI
  86:main.c        **** //LCD_DMA_TD[0] = CyDmaTdAllocate();
  87:main.c        **** //TD1
  88:main.c        **** //CY_DMA_TD_INC_SRC_ADR
  89:main.c        **** //CyDmaTdSetConfiguration(LCD_DMA_TD[0], 1, LCD_DMA_TD[0], 0 | LCD_SHIFT_DMA__TD_TERMOUT_EN);
  90:main.c        **** //CyDmaTdSetAddress(LCD_DMA_TD[0], LO16((uint32)&lcdValue), LO16((uint32)LCD_ShiftReg_IN_FIFO_VAL_L
  91:main.c        **** 
  92:main.c        **** 
  93:main.c        **** //CyDmaChSetInitialTd(LCD_DMA_Chan, LCD_DMA_TD[0]);
  94:main.c        **** 
  95:main.c        **** //CyDmaChEnable(LCD_DMA_Chan, 1);
  96:main.c        **** 
  97:main.c        **** 
  98:main.c        **** 
  99:main.c        **** LCD_CS_Write(0);
 163              		.loc 1 99 0
 164 000a 0020     		movs	r0, #0
 165 000c FFF7FEFF 		bl	LCD_CS_Write
 166              	.LVL11:
 100:main.c        **** LCD_RS_Write(1);
 167              		.loc 1 100 0
 168 0010 0120     		movs	r0, #1
 169 0012 FFF7FEFF 		bl	LCD_RS_Write
 170              	.LVL12:
 101:main.c        **** LCD_WR_REG_Write(0);
 171              		.loc 1 101 0
 172 0016 0020     		movs	r0, #0
 173 0018 FFF7FEFF 		bl	LCD_WR_REG_Write
 174              	.LVL13:
 102:main.c        **** CyDelay(100);
 175              		.loc 1 102 0
 176 001c 6420     		movs	r0, #100
 177 001e FFF7FEFF 		bl	CyDelay
 178              	.LVL14:
 179              	.LBB2:
 103:main.c        ****         //clearLCD(0xf800);
ARM GAS  C:\Users\jrdia\AppData\Local\Temp\cc1Uv4Iv.s 			page 6


 104:main.c        ****         //CyDelay(1000);
 105:main.c        ****         //clearLCD(0x07E0);
 106:main.c        ****         //CyDelay(1000);
 107:main.c        ****         //clearLCD(0x001F);
 108:main.c        ****         //CyDelay(1000);
 109:main.c        **** 
 110:main.c        ****         for(int i=0;i<9600;i++)
 180              		.loc 1 110 0
 181 0022 0023     		movs	r3, #0
 182 0024 03E0     		b	.L12
 183              	.LVL15:
 184              	.L13:
 111:main.c        ****         {
 112:main.c        ****             //int ind=(i-1);
 113:main.c        ****             //if(ind<0)
 114:main.c        ****             //    ind=9599;
 115:main.c        ****             //if(i<(320/8))
 116:main.c        ****             //    lcdPixels[ind]=0xFF;
 117:main.c        ****             //else
 118:main.c        ****             //    lcdPixels[ind]=0;
 119:main.c        ****                 
 120:main.c        ****             //temp = lcdPixels[i];
 121:main.c        ****         lcdPixels[i]=0xFF;
 185              		.loc 1 121 0 discriminator 3
 186 0026 FF21     		movs	r1, #255
 187 0028 A94A     		ldr	r2, .L39
 188 002a D154     		strb	r1, [r2, r3]
 110:main.c        ****         {
 189              		.loc 1 110 0 discriminator 3
 190 002c 0133     		adds	r3, r3, #1
 191              	.LVL16:
 192              	.L12:
 110:main.c        ****         {
 193              		.loc 1 110 0 is_stmt 0 discriminator 1
 194 002e B3F5165F 		cmp	r3, #9600
 195 0032 F8DB     		blt	.L13
 196              	.LBE2:
 122:main.c        ****         }
 123:main.c        ****         //lcdPixels[9599] = 0x00;
 124:main.c        ****         //lcdPixels[0]=0xFF;
 125:main.c        ****         //while(1);
 126:main.c        **** LCD_CS_Write(0);
 197              		.loc 1 126 0 is_stmt 1
 198 0034 0020     		movs	r0, #0
 199 0036 FFF7FEFF 		bl	LCD_CS_Write
 200              	.LVL17:
 127:main.c        **** LCD_RS_Write(1);
 201              		.loc 1 127 0
 202 003a 0120     		movs	r0, #1
 203 003c FFF7FEFF 		bl	LCD_RS_Write
 204              	.LVL18:
 128:main.c        **** LCD_WR_REG_Write(0);
 205              		.loc 1 128 0
 206 0040 0020     		movs	r0, #0
 207 0042 FFF7FEFF 		bl	LCD_WR_REG_Write
 208              	.LVL19:
 129:main.c        **** 
ARM GAS  C:\Users\jrdia\AppData\Local\Temp\cc1Uv4Iv.s 			page 7


 130:main.c        **** //LCD_ShiftReg_Start();
 131:main.c        **** 
 132:main.c        **** 
 133:main.c        **** 
 134:main.c        ****     /* Defines for LCD_SHIFT_DMA */
 135:main.c        **** //#define LCD_SHIFT_DMA_BYTES_PER_BURST 1
 136:main.c        **** //#define LCD_SHIFT_DMA_REQUEST_PER_BURST 1
 137:main.c        **** //#define LCD_SHIFT_DMA_SRC_BASE (CYDEV_SRAM_BASE)
 138:main.c        **** //#define LCD_SHIFT_DMA_DST_BASE (CYDEV_PERIPH_BASE)
 139:main.c        **** 
 140:main.c        **** /* Variable declarations for LCD_SHIFT_DMA */
 141:main.c        **** /* Move these variable declarations to the top of the function */
 142:main.c        **** //uint8 LCD_SHIFT_DMA_Chan;
 143:main.c        **** //uint8 LCD_SHIFT_DMA_TD[1];
 144:main.c        **** 
 145:main.c        **** /* DMA Configuration for LCD_SHIFT_DMA */
 146:main.c        **** //LCD_SHIFT_DMA_Chan = LCD_SHIFT_DMA_DmaInitialize(LCD_SHIFT_DMA_BYTES_PER_BURST, LCD_SHIFT_DMA_REQ
 147:main.c        **** //    HI16(LCD_SHIFT_DMA_SRC_BASE), HI16(LCD_SHIFT_DMA_DST_BASE));
 148:main.c        **** //LCD_SHIFT_DMA_TD[0] = CyDmaTdAllocate();
 149:main.c        **** //CyDmaTdSetConfiguration(LCD_SHIFT_DMA_TD[0], 1, LCD_SHIFT_DMA_TD[0], LCD_SHIFT_DMA__TD_TERMOUT_EN
 150:main.c        **** //CyDmaTdSetAddress(LCD_SHIFT_DMA_TD[0], LO16((uint32)&lcdPixels[0]), LO16((uint32)LCD_Data_Reg_Con
 151:main.c        **** //CyDmaChSetInitialTd(LCD_SHIFT_DMA_Chan, LCD_SHIFT_DMA_TD[0]);
 152:main.c        **** //CyDmaChEnable(LCD_SHIFT_DMA_Chan, 1);
 153:main.c        **** 
 154:main.c        **** 
 155:main.c        **** 
 156:main.c        **** ShiftReg_1_Start();
 209              		.loc 1 156 0
 210 0046 FFF7FEFF 		bl	ShiftReg_1_Start
 211              	.LVL20:
 157:main.c        ****     PWM_1_Start();
 212              		.loc 1 157 0
 213 004a FFF7FEFF 		bl	PWM_1_Start
 214              	.LVL21:
 158:main.c        **** 
 159:main.c        ****     DMA_Chan = DMA_DmaInitialize( 1, 1, HI16(  lcdPixels ), HI16(CYDEV_PERIPH_BASE) );
 215              		.loc 1 159 0
 216 004e A04D     		ldr	r5, .L39
 217 0050 4FEA1549 		lsr	r9, r5, #16
 218 0054 4FF48043 		mov	r3, #16384
 219 0058 4A46     		mov	r2, r9
 220 005a 0121     		movs	r1, #1
 221 005c 0846     		mov	r0, r1
 222 005e FFF7FEFF 		bl	DMA_DmaInitialize
 223              	.LVL22:
 224 0062 DFF8A882 		ldr	r8, .L39+60
 225 0066 88F80000 		strb	r0, [r8]
 160:main.c        ****     DMA_TD[0] = CyDmaTdAllocate(); 
 226              		.loc 1 160 0
 227 006a FFF7FEFF 		bl	CyDmaTdAllocate
 228              	.LVL23:
 229 006e 994C     		ldr	r4, .L39+4
 230 0070 2070     		strb	r0, [r4]
 161:main.c        ****     DMA_TD[1] = CyDmaTdAllocate(); 
 231              		.loc 1 161 0
 232 0072 FFF7FEFF 		bl	CyDmaTdAllocate
 233              	.LVL24:
ARM GAS  C:\Users\jrdia\AppData\Local\Temp\cc1Uv4Iv.s 			page 8


 234 0076 6070     		strb	r0, [r4, #1]
 162:main.c        ****     DMA_TD[2] = CyDmaTdAllocate(); 
 235              		.loc 1 162 0
 236 0078 FFF7FEFF 		bl	CyDmaTdAllocate
 237              	.LVL25:
 238 007c A070     		strb	r0, [r4, #2]
 163:main.c        ****     
 164:main.c        ****  	CyDmaTdSetConfiguration(DMA_TD[0], (4095   ), DMA_TD[1], TD_INC_SRC_ADR  ); 	 
 239              		.loc 1 164 0
 240 007e 0123     		movs	r3, #1
 241 0080 6278     		ldrb	r2, [r4, #1]	@ zero_extendqisi2
 242 0082 40F6FF71 		movw	r1, #4095
 243 0086 2078     		ldrb	r0, [r4]	@ zero_extendqisi2
 244 0088 FFF7FEFF 		bl	CyDmaTdSetConfiguration
 245              	.LVL26:
 165:main.c        ****     CyDmaTdSetAddress(DMA_TD[0], LO16((uint32)lcdPixels), LO16((uint32)ShiftReg_1_IN_FIFO_VAL_LSB_P
 246              		.loc 1 165 0
 247 008c ADB2     		uxth	r5, r5
 248 008e 46F24A52 		movw	r2, #25930
 249 0092 2946     		mov	r1, r5
 250 0094 2078     		ldrb	r0, [r4]	@ zero_extendqisi2
 251 0096 FFF7FEFF 		bl	CyDmaTdSetAddress
 252              	.LVL27:
 166:main.c        **** 
 167:main.c        ****     CyDmaTdSetConfiguration(DMA_TD[1], (4095   ), DMA_TD[2], TD_INC_SRC_ADR  ); 	 
 253              		.loc 1 167 0
 254 009a 0123     		movs	r3, #1
 255 009c A278     		ldrb	r2, [r4, #2]	@ zero_extendqisi2
 256 009e 40F6FF71 		movw	r1, #4095
 257 00a2 6078     		ldrb	r0, [r4, #1]	@ zero_extendqisi2
 258 00a4 FFF7FEFF 		bl	CyDmaTdSetConfiguration
 259              	.LVL28:
 168:main.c        ****     CyDmaTdSetAddress(DMA_TD[1], LO16((uint32)lcdPixels+4095), LO16((uint32)ShiftReg_1_IN_FIFO_VAL_
 260              		.loc 1 168 0
 261 00a8 05F6FF77 		addw	r7, r5, #4095
 262 00ac BFB2     		uxth	r7, r7
 263 00ae 46F24A52 		movw	r2, #25930
 264 00b2 3946     		mov	r1, r7
 265 00b4 6078     		ldrb	r0, [r4, #1]	@ zero_extendqisi2
 266 00b6 FFF7FEFF 		bl	CyDmaTdSetAddress
 267              	.LVL29:
 169:main.c        **** 
 170:main.c        ****     CyDmaTdSetConfiguration(DMA_TD[2], (1410   ), DMA_TD[0], TD_INC_SRC_ADR |DMA__TD_TERMOUT_EN ); 
 268              		.loc 1 170 0
 269 00ba 0523     		movs	r3, #5
 270 00bc 2278     		ldrb	r2, [r4]	@ zero_extendqisi2
 271 00be 40F28251 		movw	r1, #1410
 272 00c2 A078     		ldrb	r0, [r4, #2]	@ zero_extendqisi2
 273 00c4 FFF7FEFF 		bl	CyDmaTdSetConfiguration
 274              	.LVL30:
 171:main.c        ****     CyDmaTdSetAddress(DMA_TD[2], LO16((uint32)lcdPixels+8190), LO16((uint32)ShiftReg_1_IN_FIFO_VAL_
 275              		.loc 1 171 0
 276 00c8 05F5FF53 		add	r3, r5, #8160
 277 00cc 1E33     		adds	r3, r3, #30
 278 00ce 9EB2     		uxth	r6, r3
 279 00d0 46F24A52 		movw	r2, #25930
 280 00d4 3146     		mov	r1, r6
ARM GAS  C:\Users\jrdia\AppData\Local\Temp\cc1Uv4Iv.s 			page 9


 281 00d6 A078     		ldrb	r0, [r4, #2]	@ zero_extendqisi2
 282 00d8 FFF7FEFF 		bl	CyDmaTdSetAddress
 283              	.LVL31:
 172:main.c        **** 
 173:main.c        ****                                                                     // ShiftReg_1_IN_FIFO_VAL_LSB_P
 174:main.c        **** 															        // ShiftReg_1_SHIFT_REG_LSB_PTR   
 175:main.c        **** 																	// ShiftReg_1_SHIFT_REG_VALUE_LSB_PTR
 176:main.c        **** 																	// ShiftReg_1_OUT_FIFO_VAL_LSB_PTR
 177:main.c        ****     CyDmaChSetInitialTd(DMA_Chan, DMA_TD[0]); 	
 284              		.loc 1 177 0
 285 00dc 2178     		ldrb	r1, [r4]	@ zero_extendqisi2
 286 00de 98F80000 		ldrb	r0, [r8]	@ zero_extendqisi2
 287 00e2 FFF7FEFF 		bl	CyDmaChSetInitialTd
 288              	.LVL32:
 178:main.c        ****     CyDmaChEnable(DMA_Chan, 1); 
 289              		.loc 1 178 0
 290 00e6 0121     		movs	r1, #1
 291 00e8 98F80000 		ldrb	r0, [r8]	@ zero_extendqisi2
 292 00ec FFF7FEFF 		bl	CyDmaChEnable
 293              	.LVL33:
 179:main.c        ****     
 180:main.c        ****   CyDelay(100);
 294              		.loc 1 180 0
 295 00f0 6420     		movs	r0, #100
 296 00f2 FFF7FEFF 		bl	CyDelay
 297              	.LVL34:
 181:main.c        **** LCD_Data_Reg_Write(0);
 298              		.loc 1 181 0
 299 00f6 0020     		movs	r0, #0
 300 00f8 FFF7FEFF 		bl	LCD_Data_Reg_Write
 301              	.LVL35:
 182:main.c        **** LCD_WR_REG_Write(8);
 302              		.loc 1 182 0
 303 00fc 0820     		movs	r0, #8
 304 00fe FFF7FEFF 		bl	LCD_WR_REG_Write
 305              	.LVL36:
 183:main.c        **** LCD_WR_REG_Write(0);
 306              		.loc 1 183 0
 307 0102 0020     		movs	r0, #0
 308 0104 FFF7FEFF 		bl	LCD_WR_REG_Write
 309              	.LVL37:
 184:main.c        **** LCD_WR_REG_Write(8);
 310              		.loc 1 184 0
 311 0108 0820     		movs	r0, #8
 312 010a FFF7FEFF 		bl	LCD_WR_REG_Write
 313              	.LVL38:
 185:main.c        **** //lcdPixels[9599]=0xFF;
 186:main.c        ****     
 187:main.c        **** Trigger_Reference_Start();
 314              		.loc 1 187 0
 315 010e FFF7FEFF 		bl	Trigger_Reference_Start
 316              	.LVL39:
 188:main.c        **** Trigger_Comp_Start();
 317              		.loc 1 188 0
 318 0112 FFF7FEFF 		bl	Trigger_Comp_Start
 319              	.LVL40:
 189:main.c        **** 
ARM GAS  C:\Users\jrdia\AppData\Local\Temp\cc1Uv4Iv.s 			page 10


 190:main.c        **** Pixel_ISR_StartEx(pixelInt);
 320              		.loc 1 190 0
 321 0116 7048     		ldr	r0, .L39+8
 322 0118 FFF7FEFF 		bl	Pixel_ISR_StartEx
 323              	.LVL41:
 191:main.c        **** Pixel_ShiftReg_Start();
 324              		.loc 1 191 0
 325 011c FFF7FEFF 		bl	Pixel_ShiftReg_Start
 326              	.LVL42:
 192:main.c        **** Pixel_ShiftReg_1_Start();
 327              		.loc 1 192 0
 328 0120 FFF7FEFF 		bl	Pixel_ShiftReg_1_Start
 329              	.LVL43:
 193:main.c        **** Pixel_ShiftReg_GetIntStatus();
 330              		.loc 1 193 0
 331 0124 FFF7FEFF 		bl	Pixel_ShiftReg_GetIntStatus
 332              	.LVL44:
 194:main.c        **** //CyDelay(1000);
 195:main.c        **** 
 196:main.c        **** 
 197:main.c        ****  #define A_DMA_SRC_BASE (CYDEV_PERIPH_BASE) 
 198:main.c        ****     #define A_DMA_DST_BASE (&pixelValues)
 199:main.c        ****     #define A_DMA_BYTES_PER_BURST 1
 200:main.c        ****     #define A_DMA_REQUEST_PER_BURST 1
 201:main.c        ****     #define A_TABLE_LENGTH 1
 202:main.c        **** 
 203:main.c        **** 
 204:main.c        **** 
 205:main.c        ****     /* Step1 : DmaInitialize - Initialize the DMA channel
 206:main.c        **** 	 * Bytes per burst = 1, (8 bit data transferred to VDAC one at a time)
 207:main.c        **** 	 * Request per burst = 1 (this will cause transfer of the bytes only with every new request)
 208:main.c        **** 	 * High byte of source address = Upper 16 bits of Flash Base address for PSoC 3,
 209:main.c        **** 	                               = HI16(&sineTable) for PSoC 5
 210:main.c        ****      * High byte of destination address =  Upper 16 bits of peripheral base address */
 211:main.c        ****     ShiftReg_DMA_Chan = ShiftReg_DMA_DmaInitialize(DMA_BYTES_PER_BURST, DMA_REQUEST_PER_BURST, HI16
 333              		.loc 1 211 0
 334 0128 4B46     		mov	r3, r9
 335 012a 4FF48042 		mov	r2, #16384
 336 012e 0121     		movs	r1, #1
 337 0130 0846     		mov	r0, r1
 338 0132 FFF7FEFF 		bl	ShiftReg_DMA_DmaInitialize
 339              	.LVL45:
 340 0136 DFF8A881 		ldr	r8, .L39+16
 341 013a 88F80000 		strb	r0, [r8]
 212:main.c        **** 	
 213:main.c        ****     /* Step2 :CyDmaTdAllocate - Allocate TD */
 214:main.c        ****     ShiftReg_DMA_TD[0] = CyDmaTdAllocate();  								 
 342              		.loc 1 214 0
 343 013e FFF7FEFF 		bl	CyDmaTdAllocate
 344              	.LVL46:
 345 0142 664C     		ldr	r4, .L39+12
 346 0144 2070     		strb	r0, [r4]
 215:main.c        ****     
 216:main.c        ****     ShiftReg_DMA_TD[1] = CyDmaTdAllocate();  								 
 347              		.loc 1 216 0
 348 0146 FFF7FEFF 		bl	CyDmaTdAllocate
 349              	.LVL47:
ARM GAS  C:\Users\jrdia\AppData\Local\Temp\cc1Uv4Iv.s 			page 11


 350 014a 6070     		strb	r0, [r4, #1]
 217:main.c        ****     
 218:main.c        ****     ShiftReg_DMA_TD[2] = CyDmaTdAllocate();  								 
 351              		.loc 1 218 0
 352 014c FFF7FEFF 		bl	CyDmaTdAllocate
 353              	.LVL48:
 354 0150 A070     		strb	r0, [r4, #2]
 219:main.c        ****     
 220:main.c        ****         ShiftReg_DMA_TD[3] = CyDmaTdAllocate();  								 
 355              		.loc 1 220 0
 356 0152 FFF7FEFF 		bl	CyDmaTdAllocate
 357              	.LVL49:
 358 0156 E070     		strb	r0, [r4, #3]
 359              	.LVL50:
 221:main.c        ****     
 222:main.c        ****     
 223:main.c        ****     /* Step3 :CyDmaTdSetConfiguration - Configures the TD:
 224:main.c        **** 	 * tdHandle = DMA_TD[0] - TD handle previously returned by CyDmaTdAlloc()
 225:main.c        **** 	 * Transfer count = table_length (number of bytes to transfer for a sine wave)
 226:main.c        **** 	 * Next Td = DMA_TD[0] ; loop back to the same TD to generate a continous sien wave 
 227:main.c        **** 	 * Configuration = The source address is incremented after every burst transfer
 228:main.c        **** 	 */
 229:main.c        ****         
 230:main.c        ****         int offset = 5;
 231:main.c        ****     CyDmaTdSetConfiguration(ShiftReg_DMA_TD[0], 4095, ShiftReg_DMA_TD[1], CY_DMA_TD_INC_DST_ADR); 	
 360              		.loc 1 231 0
 361 0158 0223     		movs	r3, #2
 362 015a 6278     		ldrb	r2, [r4, #1]	@ zero_extendqisi2
 363 015c 40F6FF71 		movw	r1, #4095
 364 0160 2078     		ldrb	r0, [r4]	@ zero_extendqisi2
 365 0162 FFF7FEFF 		bl	CyDmaTdSetConfiguration
 366              	.LVL51:
 232:main.c        ****     CyDmaTdSetAddress(ShiftReg_DMA_TD[0], LO16((uint32)Pixel_ShiftReg_OUT_FIFO_VAL_LSB_PTR), LO16((
 367              		.loc 1 232 0
 368 0166 2A46     		mov	r2, r5
 369 0168 46F25D41 		movw	r1, #25693
 370 016c 2078     		ldrb	r0, [r4]	@ zero_extendqisi2
 371 016e FFF7FEFF 		bl	CyDmaTdSetAddress
 372              	.LVL52:
 233:main.c        ****         
 234:main.c        ****     CyDmaTdSetConfiguration(ShiftReg_DMA_TD[1], 4095, ShiftReg_DMA_TD[2], CY_DMA_TD_INC_DST_ADR ); 
 373              		.loc 1 234 0
 374 0172 0223     		movs	r3, #2
 375 0174 A278     		ldrb	r2, [r4, #2]	@ zero_extendqisi2
 376 0176 40F6FF71 		movw	r1, #4095
 377 017a 6078     		ldrb	r0, [r4, #1]	@ zero_extendqisi2
 378 017c FFF7FEFF 		bl	CyDmaTdSetConfiguration
 379              	.LVL53:
 235:main.c        ****     CyDmaTdSetAddress(ShiftReg_DMA_TD[1], LO16((uint32)Pixel_ShiftReg_OUT_FIFO_VAL_LSB_PTR), LO16((
 380              		.loc 1 235 0
 381 0180 3A46     		mov	r2, r7
 382 0182 46F25D41 		movw	r1, #25693
 383 0186 6078     		ldrb	r0, [r4, #1]	@ zero_extendqisi2
 384 0188 FFF7FEFF 		bl	CyDmaTdSetAddress
 385              	.LVL54:
 236:main.c        ****         
 237:main.c        ****     CyDmaTdSetConfiguration(ShiftReg_DMA_TD[2], 1410-offset, ShiftReg_DMA_TD[3], CY_DMA_TD_INC_DST_
ARM GAS  C:\Users\jrdia\AppData\Local\Temp\cc1Uv4Iv.s 			page 12


 386              		.loc 1 237 0
 387 018c 0223     		movs	r3, #2
 388 018e E278     		ldrb	r2, [r4, #3]	@ zero_extendqisi2
 389 0190 40F27D51 		movw	r1, #1405
 390 0194 A078     		ldrb	r0, [r4, #2]	@ zero_extendqisi2
 391 0196 FFF7FEFF 		bl	CyDmaTdSetConfiguration
 392              	.LVL55:
 238:main.c        ****     CyDmaTdSetAddress(ShiftReg_DMA_TD[2], LO16((uint32)Pixel_ShiftReg_OUT_FIFO_VAL_LSB_PTR), LO16((
 393              		.loc 1 238 0
 394 019a 3246     		mov	r2, r6
 395 019c 46F25D41 		movw	r1, #25693
 396 01a0 A078     		ldrb	r0, [r4, #2]	@ zero_extendqisi2
 397 01a2 FFF7FEFF 		bl	CyDmaTdSetAddress
 398              	.LVL56:
 239:main.c        ****         
 240:main.c        ****     CyDmaTdSetConfiguration(ShiftReg_DMA_TD[3], offset, ShiftReg_DMA_TD[0], CY_DMA_TD_INC_DST_ADR);
 399              		.loc 1 240 0
 400 01a6 0223     		movs	r3, #2
 401 01a8 2278     		ldrb	r2, [r4]	@ zero_extendqisi2
 402 01aa 0521     		movs	r1, #5
 403 01ac E078     		ldrb	r0, [r4, #3]	@ zero_extendqisi2
 404 01ae FFF7FEFF 		bl	CyDmaTdSetConfiguration
 405              	.LVL57:
 241:main.c        ****     CyDmaTdSetAddress(ShiftReg_DMA_TD[3], LO16((uint32)Pixel_ShiftReg_OUT_FIFO_VAL_LSB_PTR), LO16((
 406              		.loc 1 241 0
 407 01b2 05F51552 		add	r2, r5, #9536
 408 01b6 3B32     		adds	r2, r2, #59
 409 01b8 92B2     		uxth	r2, r2
 410 01ba 46F25D41 		movw	r1, #25693
 411 01be E078     		ldrb	r0, [r4, #3]	@ zero_extendqisi2
 412 01c0 FFF7FEFF 		bl	CyDmaTdSetAddress
 413              	.LVL58:
 242:main.c        ****         
 243:main.c        ****     
 244:main.c        **** 	/*CyDmaTdSetConfiguration(ShiftReg_DMA_TD[0], 4095, ShiftReg_DMA_TD[1], CY_DMA_TD_INC_DST_ADR); 	 
 245:main.c        ****     CyDmaTdSetAddress(ShiftReg_DMA_TD[0], LO16((uint32)Pixel_ShiftReg_OUT_FIFO_VAL_LSB_PTR), LO16((
 246:main.c        ****         
 247:main.c        ****     CyDmaTdSetConfiguration(ShiftReg_DMA_TD[1], 4095, ShiftReg_DMA_TD[2], CY_DMA_TD_INC_DST_ADR ); 
 248:main.c        ****     CyDmaTdSetAddress(ShiftReg_DMA_TD[1], LO16((uint32)Pixel_ShiftReg_OUT_FIFO_VAL_LSB_PTR), LO16((
 249:main.c        ****         
 250:main.c        ****     CyDmaTdSetConfiguration(ShiftReg_DMA_TD[2], 1410, ShiftReg_DMA_TD[0], CY_DMA_TD_INC_DST_ADR | S
 251:main.c        ****     CyDmaTdSetAddress(ShiftReg_DMA_TD[2], LO16((uint32)Pixel_ShiftReg_OUT_FIFO_VAL_LSB_PTR), LO16((
 252:main.c        ****         
 253:main.c        ****         CyDmaTdSetConfiguration(ShiftReg_DMA_TD[3], 100, ShiftReg_DMA_TD[0], CY_DMA_TD_INC_DST_ADR 
 254:main.c        ****     CyDmaTdSetAddress(ShiftReg_DMA_TD[3], LO16((uint32)Pixel_ShiftReg_OUT_FIFO_VAL_LSB_PTR), LO16((
 255:main.c        ****         */
 256:main.c        ****     /* Step 4 : CyDmaTdSetAddress - Configure the lower 16 bit source and destination addresses 
 257:main.c        **** 	 * Source address = Lower 16 bits of sineTable array
 258:main.c        **** 	 * Destination address = Lower 16 bits of VDAC8_Data_PTR register */
 259:main.c        **** 
 260:main.c        ****     /* Step 5: Map the TD to the DMA Channel */
 261:main.c        ****     CyDmaChSetInitialTd(ShiftReg_DMA_Chan, ShiftReg_DMA_TD[3]); 	
 414              		.loc 1 261 0
 415 01c4 E178     		ldrb	r1, [r4, #3]	@ zero_extendqisi2
 416 01c6 98F80000 		ldrb	r0, [r8]	@ zero_extendqisi2
 417 01ca FFF7FEFF 		bl	CyDmaChSetInitialTd
 418              	.LVL59:
ARM GAS  C:\Users\jrdia\AppData\Local\Temp\cc1Uv4Iv.s 			page 13


 419              	.L14:
 262:main.c        **** 	
 263:main.c        ****     
 264:main.c        ****     /* Step 6: Enable the DMA channel */
 265:main.c        ****     while(Pin_8_Read()==0);
 420              		.loc 1 265 0 discriminator 1
 421 01ce FFF7FEFF 		bl	Pin_8_Read
 422              	.LVL60:
 423 01d2 0028     		cmp	r0, #0
 424 01d4 FBD0     		beq	.L14
 425              	.L15:
 266:main.c        ****     while(Pin_8_Read()==1);
 426              		.loc 1 266 0 discriminator 1
 427 01d6 FFF7FEFF 		bl	Pin_8_Read
 428              	.LVL61:
 429 01da 0128     		cmp	r0, #1
 430 01dc FBD0     		beq	.L15
 431              	.L16:
 267:main.c        ****     while(Pin_8_Read()==0);
 432              		.loc 1 267 0 discriminator 1
 433 01de FFF7FEFF 		bl	Pin_8_Read
 434              	.LVL62:
 435 01e2 0028     		cmp	r0, #0
 436 01e4 FBD0     		beq	.L16
 437              	.L17:
 268:main.c        ****     while(Pin_8_Read()==1);
 438              		.loc 1 268 0 discriminator 1
 439 01e6 FFF7FEFF 		bl	Pin_8_Read
 440              	.LVL63:
 441 01ea 0128     		cmp	r0, #1
 442 01ec FBD0     		beq	.L17
 269:main.c        ****     
 270:main.c        ****     CyDmaChEnable(ShiftReg_DMA_Chan, 1); 
 443              		.loc 1 270 0
 444 01ee 0121     		movs	r1, #1
 445 01f0 3B4B     		ldr	r3, .L39+16
 446 01f2 1878     		ldrb	r0, [r3]	@ zero_extendqisi2
 447 01f4 FFF7FEFF 		bl	CyDmaChEnable
 448              	.LVL64:
 271:main.c        ****     
 272:main.c        ****     VDAC8_1_Start();
 449              		.loc 1 272 0
 450 01f8 FFF7FEFF 		bl	VDAC8_1_Start
 451              	.LVL65:
 273:main.c        ****     VDAC8_1_SetValue(200);
 452              		.loc 1 273 0
 453 01fc C820     		movs	r0, #200
 454 01fe FFF7FEFF 		bl	VDAC8_1_SetValue
 455              	.LVL66:
 274:main.c        ****     Comp_1_Start();
 456              		.loc 1 274 0
 457 0202 FFF7FEFF 		bl	Comp_1_Start
 458              	.LVL67:
 275:main.c        ****     
 276:main.c        ****     VSync_ISR_StartEx(vsyncISR);
 459              		.loc 1 276 0
 460 0206 3748     		ldr	r0, .L39+20
ARM GAS  C:\Users\jrdia\AppData\Local\Temp\cc1Uv4Iv.s 			page 14


 461 0208 FFF7FEFF 		bl	VSync_ISR_StartEx
 462              	.LVL68:
 277:main.c        ****     
 278:main.c        **** 
 279:main.c        **** 
 280:main.c        **** UART_1_Start();
 463              		.loc 1 280 0
 464 020c FFF7FEFF 		bl	UART_1_Start
 465              	.LVL69:
 466              	.L18:
 467              	.LBB3:
 281:main.c        **** while(1)
 282:main.c        **** {
 283:main.c        ****     unsigned int xPix,yPix;
 284:main.c        **** unsigned int c;
 285:main.c        **** unsigned int minX,minY,maxX,maxY;  
 286:main.c        ****    // compute bounding box
 287:main.c        ****   minX = W;
 288:main.c        ****   minY = H;
 289:main.c        ****   maxX = 0;
 290:main.c        ****   maxY = 0;
 291:main.c        ****   int found = 0;
 468              		.loc 1 291 0
 469 0210 4FF0000A 		mov	r10, #0
 290:main.c        ****   int found = 0;
 470              		.loc 1 290 0
 471 0214 5746     		mov	r7, r10
 289:main.c        ****   maxY = 0;
 472              		.loc 1 289 0
 473 0216 5646     		mov	r6, r10
 288:main.c        ****   maxX = 0;
 474              		.loc 1 288 0
 475 0218 4FF0F008 		mov	r8, #240
 287:main.c        ****   minY = H;
 476              		.loc 1 287 0
 477 021c 4FF4A079 		mov	r9, #320
 292:main.c        ****   for(yPix=0;yPix<H;yPix++) {
 478              		.loc 1 292 0
 479 0220 5546     		mov	r5, r10
 480 0222 1DE0     		b	.L19
 481              	.LVL70:
 482              	.L24:
 293:main.c        ****     for(xPix=0;xPix<W;xPix++) {
 294:main.c        ****       c = getPixel(xPix,yPix);
 483              		.loc 1 294 0
 484 0224 2946     		mov	r1, r5
 485 0226 2046     		mov	r0, r4
 486 0228 FFF7FEFF 		bl	getPixel
 487              	.LVL71:
 295:main.c        ****       if (c == 1) {
 488              		.loc 1 295 0
 489 022c 0128     		cmp	r0, #1
 490 022e 10D1     		bne	.L20
 491              	.LVL72:
 296:main.c        ****         found = 1;
 297:main.c        ****         if (xPix < minX) {
 492              		.loc 1 297 0
ARM GAS  C:\Users\jrdia\AppData\Local\Temp\cc1Uv4Iv.s 			page 15


 493 0230 4C45     		cmp	r4, r9
 494 0232 00D2     		bcs	.L21
 298:main.c        ****           minX = xPix;
 495              		.loc 1 298 0
 496 0234 A146     		mov	r9, r4
 497              	.LVL73:
 498              	.L21:
 299:main.c        ****         }
 300:main.c        ****         if (xPix > maxX) {
 499              		.loc 1 300 0
 500 0236 B442     		cmp	r4, r6
 501 0238 00D9     		bls	.L22
 301:main.c        ****           maxX = xPix;
 502              		.loc 1 301 0
 503 023a 2646     		mov	r6, r4
 504              	.LVL74:
 505              	.L22:
 302:main.c        ****         }
 303:main.c        ****         if (yPix < minY) {
 506              		.loc 1 303 0
 507 023c 4545     		cmp	r5, r8
 508 023e 00D2     		bcs	.L23
 304:main.c        ****           minY = yPix;
 509              		.loc 1 304 0
 510 0240 A846     		mov	r8, r5
 511              	.LVL75:
 512              	.L23:
 305:main.c        ****         }
 306:main.c        ****         if (yPix > maxY) {
 513              		.loc 1 306 0
 514 0242 BD42     		cmp	r5, r7
 515 0244 02D8     		bhi	.L36
 296:main.c        ****         if (xPix < minX) {
 516              		.loc 1 296 0
 517 0246 4FF0010A 		mov	r10, #1
 518 024a 02E0     		b	.L20
 519              	.L36:
 307:main.c        ****           maxY = yPix;
 520              		.loc 1 307 0
 521 024c 2F46     		mov	r7, r5
 522              	.LVL76:
 296:main.c        ****         if (xPix < minX) {
 523              		.loc 1 296 0
 524 024e 4FF0010A 		mov	r10, #1
 525              	.LVL77:
 526              	.L20:
 293:main.c        ****       c = getPixel(xPix,yPix);
 527              		.loc 1 293 0 discriminator 2
 528 0252 0134     		adds	r4, r4, #1
 529              	.LVL78:
 530 0254 00E0     		b	.L25
 531              	.LVL79:
 532              	.L37:
 533 0256 0024     		movs	r4, #0
 534              	.L25:
 535              	.LVL80:
 293:main.c        ****       c = getPixel(xPix,yPix);
ARM GAS  C:\Users\jrdia\AppData\Local\Temp\cc1Uv4Iv.s 			page 16


 536              		.loc 1 293 0 is_stmt 0 discriminator 1
 537 0258 B4F5A07F 		cmp	r4, #320
 538 025c E2D3     		bcc	.L24
 292:main.c        ****     for(xPix=0;xPix<W;xPix++) {
 539              		.loc 1 292 0 is_stmt 1 discriminator 2
 540 025e 0135     		adds	r5, r5, #1
 541              	.LVL81:
 542              	.L19:
 292:main.c        ****     for(xPix=0;xPix<W;xPix++) {
 543              		.loc 1 292 0 is_stmt 0 discriminator 1
 544 0260 EF2D     		cmp	r5, #239
 545 0262 F8D9     		bls	.L37
 308:main.c        ****         }
 309:main.c        ****       }
 310:main.c        ****     }
 311:main.c        ****   }
 312:main.c        **** CyDelay(100);
 546              		.loc 1 312 0 is_stmt 1
 547 0264 6420     		movs	r0, #100
 548 0266 FFF7FEFF 		bl	CyDelay
 549              	.LVL82:
 313:main.c        **** if(found)
 550              		.loc 1 313 0
 551 026a BAF1000F 		cmp	r10, #0
 552 026e 2AD0     		beq	.L26
 314:main.c        **** {
 315:main.c        ****     midX = (minX+maxX)/2;
 553              		.loc 1 315 0
 554 0270 09EB0603 		add	r3, r9, r6
 555 0274 5B08     		lsrs	r3, r3, #1
 556 0276 1C4A     		ldr	r2, .L39+24
 557 0278 1360     		str	r3, [r2]
 316:main.c        ****     midY = (minY+maxY)/2;
 558              		.loc 1 316 0
 559 027a 08EB0702 		add	r2, r8, r7
 560 027e 5208     		lsrs	r2, r2, #1
 561 0280 1A49     		ldr	r1, .L39+28
 562 0282 0A60     		str	r2, [r1]
 317:main.c        **** 
 318:main.c        ****     if(midX<140)
 563              		.loc 1 318 0
 564 0284 8B2B     		cmp	r3, #139
 565 0286 03DC     		bgt	.L27
 319:main.c        ****     {
 320:main.c        ****         iprintf("Move Left.");
 566              		.loc 1 320 0
 567 0288 1948     		ldr	r0, .L39+32
 568 028a FFF7FEFF 		bl	iprintf
 569              	.LVL83:
 570 028e 08E0     		b	.L28
 571              	.L27:
 321:main.c        ****     }
 322:main.c        ****     else if(midX>180)
 572              		.loc 1 322 0
 573 0290 B42B     		cmp	r3, #180
 574 0292 03DD     		ble	.L29
 323:main.c        ****     {
ARM GAS  C:\Users\jrdia\AppData\Local\Temp\cc1Uv4Iv.s 			page 17


 324:main.c        ****         iprintf("Move Right.");
 575              		.loc 1 324 0
 576 0294 1748     		ldr	r0, .L39+36
 577 0296 FFF7FEFF 		bl	iprintf
 578              	.LVL84:
 579 029a 02E0     		b	.L28
 580              	.L29:
 325:main.c        ****     }
 326:main.c        ****     else
 327:main.c        ****     {
 328:main.c        ****         iprintf("Centered X.");
 581              		.loc 1 328 0
 582 029c 1648     		ldr	r0, .L39+40
 583 029e FFF7FEFF 		bl	iprintf
 584              	.LVL85:
 585              	.L28:
 329:main.c        ****     }
 330:main.c        ****     
 331:main.c        ****     if(midY<100)
 586              		.loc 1 331 0
 587 02a2 124B     		ldr	r3, .L39+28
 588 02a4 1B68     		ldr	r3, [r3]
 589 02a6 632B     		cmp	r3, #99
 590 02a8 03DC     		bgt	.L30
 332:main.c        ****     {
 333:main.c        ****         iprintf("\tMove Up.\r\n");
 591              		.loc 1 333 0
 592 02aa 1448     		ldr	r0, .L39+44
 593 02ac FFF7FEFF 		bl	iprintf
 594              	.LVL86:
 595 02b0 AEE7     		b	.L18
 596              	.L30:
 334:main.c        ****     }
 335:main.c        ****     else if(midY>140)
 597              		.loc 1 335 0
 598 02b2 8C2B     		cmp	r3, #140
 599 02b4 03DD     		ble	.L32
 336:main.c        ****     {
 337:main.c        ****         iprintf("\tMove Down.\r\n");
 600              		.loc 1 337 0
 601 02b6 1248     		ldr	r0, .L39+48
 602 02b8 FFF7FEFF 		bl	iprintf
 603              	.LVL87:
 604 02bc A8E7     		b	.L18
 605              	.L32:
 338:main.c        ****     }
 339:main.c        ****     else
 340:main.c        ****     {
 341:main.c        ****         iprintf("\tCentered Y.\r\n");
 606              		.loc 1 341 0
 607 02be 1148     		ldr	r0, .L39+52
 608 02c0 FFF7FEFF 		bl	iprintf
 609              	.LVL88:
 610 02c4 A4E7     		b	.L18
 611              	.L26:
 342:main.c        ****     }
 343:main.c        **** }
ARM GAS  C:\Users\jrdia\AppData\Local\Temp\cc1Uv4Iv.s 			page 18


 344:main.c        **** else
 345:main.c        **** {
 346:main.c        ****     iprintf("Nothing Found.\r\n");
 612              		.loc 1 346 0
 613 02c6 1048     		ldr	r0, .L39+56
 614 02c8 FFF7FEFF 		bl	iprintf
 615              	.LVL89:
 616 02cc A0E7     		b	.L18
 617              	.L40:
 618 02ce 00BF     		.align	2
 619              	.L39:
 620 02d0 00000000 		.word	lcdPixels
 621 02d4 00000000 		.word	DMA_TD
 622 02d8 00000000 		.word	pixelInt
 623 02dc 00000000 		.word	ShiftReg_DMA_TD
 624 02e0 00000000 		.word	ShiftReg_DMA_Chan
 625 02e4 00000000 		.word	vsyncISR
 626 02e8 00000000 		.word	midX
 627 02ec 00000000 		.word	midY
 628 02f0 00000000 		.word	.LC0
 629 02f4 0C000000 		.word	.LC1
 630 02f8 18000000 		.word	.LC2
 631 02fc 24000000 		.word	.LC3
 632 0300 30000000 		.word	.LC4
 633 0304 40000000 		.word	.LC5
 634 0308 50000000 		.word	.LC6
 635 030c 00000000 		.word	DMA_Chan
 636              	.LBE3:
 637              		.cfi_endproc
 638              	.LFE66:
 639              		.size	main, .-main
 640              		.comm	midY,4,4
 641              		.comm	midX,4,4
 642              		.comm	ShiftReg_DMA_TD,4,4
 643              		.comm	ShiftReg_DMA_Chan,1,1
 644              		.comm	DMA_TD,3,4
 645              		.comm	DMA_Chan,1,1
 646              		.global	sineTable
 647              		.comm	temp,1,1
 648              		.comm	lcdPixels,9600,4
 649              		.global	lcdValue
 650              		.section	.rodata
 651              		.align	2
 652              		.type	sineTable, %object
 653              		.size	sineTable, 10
 654              	sineTable:
 655 0000 00       		.byte	0
 656 0001 FF       		.byte	-1
 657 0002 00       		.byte	0
 658 0003 FF       		.byte	-1
 659 0004 00       		.byte	0
 660 0005 FF       		.byte	-1
 661 0006 00       		.byte	0
 662 0007 FF       		.byte	-1
 663 0008 0000     		.space	2
 664              		.data
 665              		.align	1
ARM GAS  C:\Users\jrdia\AppData\Local\Temp\cc1Uv4Iv.s 			page 19


 666              		.type	lcdValue, %object
 667              		.size	lcdValue, 2
 668              	lcdValue:
 669 0000 FF00     		.short	255
 670              		.section	.rodata.str1.4,"aMS",%progbits,1
 671              		.align	2
 672              	.LC0:
 673 0000 4D6F7665 		.ascii	"Move Left.\000"
 673      204C6566 
 673      742E00
 674 000b 00       		.space	1
 675              	.LC1:
 676 000c 4D6F7665 		.ascii	"Move Right.\000"
 676      20526967 
 676      68742E00 
 677              	.LC2:
 678 0018 43656E74 		.ascii	"Centered X.\000"
 678      65726564 
 678      20582E00 
 679              	.LC3:
 680 0024 094D6F76 		.ascii	"\011Move Up.\015\012\000"
 680      65205570 
 680      2E0D0A00 
 681              	.LC4:
 682 0030 094D6F76 		.ascii	"\011Move Down.\015\012\000"
 682      6520446F 
 682      776E2E0D 
 682      0A00
 683 003e 0000     		.space	2
 684              	.LC5:
 685 0040 0943656E 		.ascii	"\011Centered Y.\015\012\000"
 685      74657265 
 685      6420592E 
 685      0D0A00
 686 004f 00       		.space	1
 687              	.LC6:
 688 0050 4E6F7468 		.ascii	"Nothing Found.\015\012\000"
 688      696E6720 
 688      466F756E 
 688      642E0D0A 
 688      00
 689              		.text
 690              	.Letext0:
 691              		.file 2 "c:\\program files (x86)\\cypress\\psoc creator\\4.1\\psoc creator\\import\\gnu\\arm\\5.4.
 692              		.file 3 "c:\\program files (x86)\\cypress\\psoc creator\\4.1\\psoc creator\\import\\gnu\\arm\\5.4.
 693              		.file 4 "Generated_Source\\PSoC5/cytypes.h"
 694              		.file 5 "Generated_Source\\PSoC5/core_cm3.h"
 695              		.file 6 "Generated_Source\\PSoC5/Pixel_ShiftReg.h"
 696              		.file 7 "Generated_Source\\PSoC5/CYDMAC.H"
 697              		.file 8 "Generated_Source\\PSoC5/CyLib.h"
 698              		.file 9 "iprintf.h"
 699              		.file 10 "LCD.h"
 700              		.file 11 "Generated_Source\\PSoC5/LCD_CS.h"
 701              		.file 12 "Generated_Source\\PSoC5/LCD_RS.h"
 702              		.file 13 "Generated_Source\\PSoC5/LCD_WR_REG.h"
 703              		.file 14 "Generated_Source\\PSoC5/ShiftReg_1.h"
 704              		.file 15 "Generated_Source\\PSoC5/PWM_1.h"
ARM GAS  C:\Users\jrdia\AppData\Local\Temp\cc1Uv4Iv.s 			page 20


 705              		.file 16 "Generated_Source\\PSoC5/DMA_dma.h"
 706              		.file 17 "Generated_Source\\PSoC5/LCD_Data_Reg.h"
 707              		.file 18 "Generated_Source\\PSoC5/Trigger_Reference.h"
 708              		.file 19 "Generated_Source\\PSoC5/Trigger_Comp.h"
 709              		.file 20 "Generated_Source\\PSoC5/Pixel_ISR.h"
 710              		.file 21 "Generated_Source\\PSoC5/Pixel_ShiftReg_1.h"
 711              		.file 22 "Generated_Source\\PSoC5/ShiftReg_DMA_dma.h"
 712              		.file 23 "Generated_Source\\PSoC5/Pin_8.h"
 713              		.file 24 "Generated_Source\\PSoC5/VDAC8_1.h"
 714              		.file 25 "Generated_Source\\PSoC5/Comp_1.h"
 715              		.file 26 "Generated_Source\\PSoC5/VSync_ISR.h"
 716              		.file 27 "Generated_Source\\PSoC5/UART_1.h"